; Function Attrs: mustprogress uwtable
define void @_ZNK2c43yml4Tree12_lookup_pathEPNS1_13lookup_resultE(ptr noundef nonnull readonly align 8 captures(none) dereferenceable(256) %0, ptr noundef captures(none) %1) local_unnamed_addr #1 align 2 personality ptr @__gxx_personality_v0 {
  %3 = alloca %"struct.c4::yml::Tree::_lookup_path_token", align 8
  call void @llvm.lifetime.start.p0(i64 24, ptr nonnull %3) #39
  %4 = getelementptr inbounds nuw i8, ptr %1, i64 8
  %5 = load i64, ptr %4, align 8, !tbaa !228
  %6 = load ptr, ptr %0, align 8, !tbaa !116
  %7 = getelementptr inbounds nuw %"struct.c4::yml::NodeData", ptr %6, i64 %5
  %.sroa.0.0.copyload.i = load i64, ptr %7, align 8, !tbaa !152
  store ptr @.str.54, ptr %3, align 8, !tbaa !67
  %.sroa.2.0..sroa_idx.i = getelementptr inbounds nuw i8, ptr %3, i64 8
  store i64 0, ptr %.sroa.2.0..sroa_idx.i, align 8, !tbaa !68
  %8 = getelementptr inbounds nuw i8, ptr %3, i64 16
  store i64 %.sroa.0.0.copyload.i, ptr %8, align 8, !tbaa !152
  %9 = getelementptr inbounds nuw i8, ptr %1, i64 24
  %10 = getelementptr inbounds nuw i8, ptr %1, i64 16
  %11 = getelementptr inbounds nuw i8, ptr %1, i64 32
  br label %12

12:                                               ; preds = %23, %2
  %13 = call noundef i64 @_ZNK2c43yml4Tree10_next_nodeEPNS1_13lookup_resultEPNS1_18_lookup_path_tokenE(ptr noundef nonnull align 8 dereferenceable(256) %0, ptr noundef nonnull %1, ptr noundef nonnull %3)
  %.not = icmp eq i64 %13, -1
  br i1 %.not, label %15, label %14

14:                                               ; preds = %12
  store i64 %13, ptr %4, align 8, !tbaa !228
  br label %15

15:                                               ; preds = %14, %12
  %16 = load i64, ptr %10, align 8, !tbaa !225
  %17 = load ptr, ptr %9, align 8, !tbaa !165
  %18 = load i64, ptr %11, align 8, !tbaa !56
  %19 = icmp eq i64 %18, %16
  %20 = icmp eq ptr %17, null
  %21 = select i1 %19, i1 true, i1 %20
  br i1 %21, label %22, label %23

22:                                               ; preds = %15
  store i64 %13, ptr %1, align 8, !tbaa !227
  br label %.loopexit

23:                                               ; preds = %15
  br i1 %.not, label %.loopexit, label %12, !llvm.loop !229

.loopexit:                                        ; preds = %23, %22
  call void @llvm.lifetime.end.p0(i64 24, ptr nonnull %3) #39
  ret void
}